; Function Attrs: mustprogress nounwind uwtable
define void @_ZN32pxrInternal_v0_24__pxrReserved__18UsdNamespaceEditor20_ClearProcessedEditsEv(ptr noundef nonnull align 8 dereferenceable(200) %0) local_unnamed_addr #3 align 2 {
  %2 = getelementptr inbounds nuw i8, ptr %0, i64 192
  %3 = load i8, ptr %2, align 8
  %4 = trunc i8 %3 to i1
  br i1 %4, label %5, label %_ZNSt8optionalIN32pxrInternal_v0_24__pxrReserved__18UsdNamespaceEditor14_ProcessedEditEE5resetEv.exit

5:                                                ; preds = %1
  %6 = getelementptr inbounds nuw i8, ptr %0, i64 32
  store i8 0, ptr %2, align 8
  tail call void @_ZN32pxrInternal_v0_24__pxrReserved__18UsdNamespaceEditor14_ProcessedEditD2Ev(ptr noundef nonnull align 8 dereferenceable(168) %6) #13
  br label %_ZNSt8optionalIN32pxrInternal_v0_24__pxrReserved__18UsdNamespaceEditor14_ProcessedEditEE5resetEv.exit

_ZNSt8optionalIN32pxrInternal_v0_24__pxrReserved__18UsdNamespaceEditor14_ProcessedEditEE5resetEv.exit: ; preds = %1, %5
  ret void
}